; Function Attrs: nounwind uwtable
define internal void @tkgen_bezier(ptr noundef %0, ptr noundef %1, i64 noundef %2, i32 %3) #0 {
  %5 = getelementptr inbounds nuw i8, ptr %0, i64 32
  %6 = load ptr, ptr %5, align 8, !tbaa !34
  %7 = getelementptr inbounds nuw i8, ptr %6, i64 168
  %8 = load i32, ptr %7, align 8, !tbaa !39
  %.not = icmp eq i32 %8, 0
  br i1 %.not, label %62, label %9

9:                                                ; preds = %4
  %10 = getelementptr inbounds nuw i8, ptr %0, i64 264
  %11 = load i8, ptr %10, align 8, !tbaa !50, !range !51, !noundef !52
  %12 = trunc nuw i8 %11 to i1
  br i1 %12, label %13, label %tkgen_canvas.exit

13:                                               ; preds = %9
  %14 = getelementptr inbounds nuw i8, ptr %0, i64 256
  %15 = load ptr, ptr %14, align 8, !tbaa !53
  %16 = load ptr, ptr %15, align 8, !tbaa !54
  br label %tkgen_canvas.exit

tkgen_canvas.exit:                                ; preds = %9, %13
  %.str.14.sink.i = phi ptr [ %16, %13 ], [ @.str.14, %9 ]
  %17 = tail call i32 @gvputs(ptr noundef nonnull %0, ptr noundef %.str.14.sink.i) #6
  %18 = tail call i32 @gvputs(ptr noundef nonnull %0, ptr noundef nonnull @.str.32) #6
  tail call void @gvprintpointflist(ptr noundef nonnull %0, ptr noundef %1, i64 noundef %2) #6
  %19 = tail call i32 @gvputs(ptr noundef nonnull %0, ptr noundef nonnull @.str.25) #6
  %20 = getelementptr inbounds nuw i8, ptr %6, i64 32
  %.sroa.0.0.copyload = load ptr, ptr %20, align 1
  %.sroa.820.0..sroa_idx = getelementptr inbounds nuw i8, ptr %6, i64 64
  %.sroa.820.0.copyload = load i32, ptr %.sroa.820.0..sroa_idx, align 1
  switch i32 %.sroa.820.0.copyload, label %35 [
    i32 4, label %21
    i32 1, label %23
  ]

21:                                               ; preds = %tkgen_canvas.exit
  %22 = tail call i32 @gvputs(ptr noundef nonnull %0, ptr noundef %.sroa.0.0.copyload) #6
  br label %tkgen_print_color.exit

23:                                               ; preds = %tkgen_canvas.exit
  %24 = ptrtoint ptr %.sroa.0.0.copyload to i64
  %25 = and i64 %24, 4278190080
  %26 = icmp eq i64 %25, 0
  br i1 %26, label %27, label %29

27:                                               ; preds = %23
  %28 = tail call i32 @gvputs(ptr noundef nonnull %0, ptr noundef nonnull @.str.15) #6
  br label %tkgen_print_color.exit

29:                                               ; preds = %23
  %.sroa.0.0.extract.trunc = trunc i64 %24 to i32
  %30 = and i32 %.sroa.0.0.extract.trunc, 255
  %31 = lshr i32 %.sroa.0.0.extract.trunc, 8
  %32 = and i32 %31, 255
  %33 = lshr i32 %.sroa.0.0.extract.trunc, 16
  %34 = and i32 %33, 255
  tail call void (ptr, ptr, ...) @gvprintf(ptr noundef nonnull %0, ptr noundef nonnull @.str.16, i32 noundef %30, i32 noundef %32, i32 noundef %34) #6
  br label %tkgen_print_color.exit

35:                                               ; preds = %tkgen_canvas.exit
  %36 = load ptr, ptr @stderr, align 8, !tbaa !58
  %37 = tail call i32 (ptr, ptr, ...) @fprintf(ptr noundef %36, ptr noundef nonnull @.str.17, ptr noundef nonnull @.str.18, i32 noundef 43) #7
  tail call void @abort() #8
  unreachable

tkgen_print_color.exit:                           ; preds = %21, %27, %29
  %38 = tail call i32 @gvputs(ptr noundef nonnull %0, ptr noundef nonnull @.str.27) #6
  %39 = getelementptr inbounds nuw i8, ptr %6, i64 176
  %40 = load double, ptr %39, align 8, !tbaa !64
  tail call void @gvprintdouble(ptr noundef nonnull %0, double noundef %40) #6
  %41 = load i32, ptr %7, align 8, !tbaa !39
  %42 = icmp eq i32 %41, 1
  br i1 %42, label %43, label %45

43:                                               ; preds = %tkgen_print_color.exit
  %44 = tail call i32 @gvputs(ptr noundef nonnull %0, ptr noundef nonnull @.str.29) #6
  %.pr = load i32, ptr %7, align 8, !tbaa !39
  br label %45

45:                                               ; preds = %43, %tkgen_print_color.exit
  %46 = phi i32 [ %.pr, %43 ], [ %41, %tkgen_print_color.exit ]
  %47 = icmp eq i32 %46, 2
  br i1 %47, label %48, label %50

48:                                               ; preds = %45
  %49 = tail call i32 @gvputs(ptr noundef nonnull %0, ptr noundef nonnull @.str.30) #6
  br label %50

50:                                               ; preds = %48, %45
  %51 = tail call i32 @gvputs(ptr noundef nonnull %0, ptr noundef nonnull @.str.33) #6
  %52 = load ptr, ptr %5, align 8, !tbaa !34
  %53 = getelementptr inbounds nuw i8, ptr %52, i64 24
  %54 = load i32, ptr %53, align 8, !tbaa !61
  %55 = icmp ult i32 %54, 12
  br i1 %55, label %switch.lookup, label %56

56:                                               ; preds = %50
  %57 = load ptr, ptr @stderr, align 8, !tbaa !58
  %58 = tail call i32 (ptr, ptr, ...) @fprintf(ptr noundef %57, ptr noundef nonnull @.str.17, ptr noundef nonnull @.str.18, i32 noundef 100) #7
  tail call void @abort() #8
  unreachable

switch.lookup:                                    ; preds = %50
  %59 = zext nneg i32 %54 to i64
  %switch.gep = getelementptr inbounds nuw [12 x ptr], ptr @switch.table.tkgen_polyline, i64 0, i64 %59
  %switch.load = load ptr, ptr %switch.gep, align 8
  %60 = zext nneg i32 %54 to i64
  %switch.gep21 = getelementptr inbounds nuw [12 x i32], ptr @switch.table.tkgen_polyline.5, i64 0, i64 %60
  %switch.load22 = load i32, ptr %switch.gep21, align 4
  %.014.in.i = getelementptr inbounds nuw i8, ptr %52, i64 16
  %.014.i = load ptr, ptr %.014.in.i, align 8, !tbaa !35
  tail call void (ptr, ptr, ...) @gvprintf(ptr noundef nonnull %0, ptr noundef nonnull @.str.23, i32 noundef %switch.load22, ptr noundef nonnull %switch.load, ptr noundef %.014.i) #6
  %61 = tail call i32 @gvputs(ptr noundef nonnull %0, ptr noundef nonnull @.str.13) #6
  br label %62

62:                                               ; preds = %switch.lookup, %4
  ret void
}